; Function Attrs: mustprogress nofree norecurse nosync nounwind willreturn memory(readwrite, argmem: write, inaccessiblemem: none) uwtable
define hidden void @_ZN12HotSpotJVMCI17VMIntrinsicMethod15set_c2SupportedEP8JVMCIEnvP7oopDesch(ptr nocapture noundef readnone %0, ptr noundef %1, i8 noundef zeroext %2) local_unnamed_addr #7 align 2 {
  %4 = load i32, ptr @_ZN12HotSpotJVMCI17VMIntrinsicMethod19_c2Supported_offsetE, align 4
  %5 = and i8 %2, 1
  %6 = ptrtoint ptr %1 to i64
  %7 = sext i32 %4 to i64
  %8 = add nsw i64 %7, %6
  %9 = inttoptr i64 %8 to ptr
  store i8 %5, ptr %9, align 1
  ret void
}